; Function Attrs: mustprogress uwtable
define void @_ZN2cvmiERKNS_7MatExprERKNS_7Scalar_IdEE(ptr dead_on_unwind noalias writable sret(%"class.cv::MatExpr") align 8 %0, ptr noundef nonnull align 8 dereferenceable(352) %1, ptr nocapture noundef nonnull readonly align 8 dereferenceable(32) %2) local_unnamed_addr #8 personality ptr @__gxx_personality_v0 {
  %4 = alloca %"class.cv::Scalar_", align 16
  store ptr null, ptr %0, align 8
  %5 = getelementptr inbounds i8, ptr %0, i64 8
  store i32 0, ptr %5, align 8
  %6 = getelementptr inbounds i8, ptr %0, i64 16
  tail call void @_ZN2cv3MatC1Ev(ptr noundef nonnull align 8 dereferenceable(96) %6) #21
  %7 = getelementptr inbounds i8, ptr %0, i64 112
  tail call void @_ZN2cv3MatC1Ev(ptr noundef nonnull align 8 dereferenceable(96) %7) #21
  %8 = getelementptr inbounds i8, ptr %0, i64 208
  tail call void @_ZN2cv3MatC1Ev(ptr noundef nonnull align 8 dereferenceable(96) %8) #21
  %9 = getelementptr inbounds i8, ptr %0, i64 304
  tail call void @llvm.memset.p0.i64(ptr noundef nonnull align 8 dereferenceable(48) %9, i8 0, i64 48, i1 false)
  %10 = load ptr, ptr %1, align 8
  tail call void @llvm.experimental.noalias.scope.decl(metadata !25)
  %11 = getelementptr inbounds i8, ptr %2, i64 16
  %12 = load <2 x double>, ptr %2, align 8, !noalias !25
  %13 = fneg <2 x double> %12
  store <2 x double> %13, ptr %4, align 16, !alias.scope !25
  %14 = getelementptr inbounds i8, ptr %4, i64 16
  %15 = load <2 x double>, ptr %11, align 8, !noalias !25
  %16 = fneg <2 x double> %15
  store <2 x double> %16, ptr %14, align 16, !alias.scope !25
  %17 = load ptr, ptr %10, align 8
  %18 = getelementptr inbounds i8, ptr %17, i64 112
  %19 = load ptr, ptr %18, align 8
  invoke void %19(ptr noundef nonnull align 8 dereferenceable(8) %10, ptr noundef nonnull align 8 dereferenceable(352) %1, ptr noundef nonnull align 8 dereferenceable(32) %4, ptr noundef nonnull align 8 dereferenceable(352) %0)
          to label %22 unwind label %20

20:                                               ; preds = %3
  %21 = landingpad { ptr, i32 }
          cleanup
  call void @_ZN2cv7MatExprD2Ev(ptr noundef nonnull align 8 dereferenceable(352) %0) #21
  resume { ptr, i32 } %21

22:                                               ; preds = %3
  ret void
}